; Function Attrs: nounwind uwtable
define i64 @b2World_OverlapPoint(i32 %0, <2 x float> %1, <2 x float> %2, <2 x float> %3, i64 %4, i64 %5, ptr noundef %6, ptr noundef %7) local_unnamed_addr #8 {
  %9 = alloca %struct.WorldOverlapContext, align 8
  %10 = alloca %struct.b2Circle, align 8
  call void @llvm.lifetime.start.p0(i64 12, ptr nonnull %10) #22
  store <2 x float> %1, ptr %10, align 8
  %11 = getelementptr inbounds nuw i8, ptr %10, i64 8
  store float 0.000000e+00, ptr %11, align 8, !tbaa !320
  %12 = and i32 %0, 65535
  %13 = zext nneg i32 %12 to i64
  %14 = getelementptr %struct.b2World, ptr @b2_worlds, i64 %13
  %15 = getelementptr i8, ptr %14, i64 -9
  %16 = load i8, ptr %15, align 1, !tbaa !35, !range !77, !noundef !78
  %17 = trunc nuw i8 %16 to i1
  br i1 %17, label %b2World_OverlapCircle.exit, label %18

18:                                               ; preds = %8
  %19 = getelementptr i8, ptr %14, i64 -1792
  %20 = call { <2 x float>, <2 x float> } @b2ComputeCircleAABB(ptr noundef nonnull %10, <2 x float> %2, <2 x float> %3) #22
  %21 = extractvalue { <2 x float>, <2 x float> } %20, 0
  %22 = extractvalue { <2 x float>, <2 x float> } %20, 1
  call void @llvm.lifetime.start.p0(i64 128, ptr nonnull %9) #22
  store ptr %19, ptr %9, align 8, !tbaa !419
  %23 = getelementptr inbounds nuw i8, ptr %9, i64 8
  store ptr %6, ptr %23, align 8, !tbaa !422
  %24 = getelementptr inbounds nuw i8, ptr %9, i64 16
  store i64 %4, ptr %24, align 8, !tbaa !227
  %.sroa.2.0..sroa_idx.i = getelementptr inbounds nuw i8, ptr %9, i64 24
  store i64 %5, ptr %.sroa.2.0..sroa_idx.i, align 8, !tbaa !227
  %25 = getelementptr inbounds nuw i8, ptr %9, i64 32
  %26 = load float, ptr %11, align 8, !tbaa !320
  call void @b2MakeProxy(ptr dead_on_unwind nonnull writable sret(%struct.b2ShapeProxy) align 4 %25, ptr noundef nonnull %10, i32 noundef 1, float noundef %26) #22
  %27 = getelementptr inbounds nuw i8, ptr %9, i64 104
  store <2 x float> %2, ptr %27, align 8
  %.sroa.3.0..sroa_idx.i = getelementptr inbounds nuw i8, ptr %9, i64 112
  store <2 x float> %3, ptr %.sroa.3.0..sroa_idx.i, align 8
  %28 = getelementptr inbounds nuw i8, ptr %9, i64 120
  store ptr %7, ptr %28, align 8, !tbaa !423
  %29 = getelementptr i8, ptr %14, i64 -1752
  br label %35

30:                                               ; preds = %35
  call void @llvm.lifetime.end.p0(i64 128, ptr nonnull %9) #22
  %31 = zext i32 %39 to i64
  %32 = shl nuw i64 %31, 32
  %33 = zext i32 %38 to i64
  %34 = or disjoint i64 %32, %33
  br label %b2World_OverlapCircle.exit

35:                                               ; preds = %35, %18
  %indvars.iv.i = phi i64 [ 0, %18 ], [ %indvars.iv.next.i, %35 ]
  %.sroa.015.122.i = phi i32 [ 0, %18 ], [ %38, %35 ]
  %.sroa.417.121.i = phi i32 [ 0, %18 ], [ %39, %35 ]
  %36 = getelementptr inbounds nuw %struct.b2DynamicTree, ptr %29, i64 %indvars.iv.i
  %37 = call i64 @b2DynamicTree_Query(ptr noundef nonnull %36, <2 x float> %21, <2 x float> %22, i64 noundef %5, ptr noundef nonnull @TreeOverlapCallback, ptr noundef nonnull %9) #22
  %.sroa.0.0.extract.trunc.i = trunc i64 %37 to i32
  %.sroa.4.0.extract.shift.i = lshr i64 %37, 32
  %.sroa.4.0.extract.trunc.i = trunc nuw i64 %.sroa.4.0.extract.shift.i to i32
  %38 = add nsw i32 %.sroa.015.122.i, %.sroa.0.0.extract.trunc.i
  %39 = add nsw i32 %.sroa.417.121.i, %.sroa.4.0.extract.trunc.i
  %indvars.iv.next.i = add nuw nsw i64 %indvars.iv.i, 1
  %exitcond.not.i = icmp eq i64 %indvars.iv.next.i, 3
  br i1 %exitcond.not.i, label %30, label %35, !llvm.loop !424

b2World_OverlapCircle.exit:                       ; preds = %8, %30
  %.sroa.015.0.insert.insert.i = phi i64 [ %34, %30 ], [ 0, %8 ]
  call void @llvm.lifetime.end.p0(i64 12, ptr nonnull %10) #22
  ret i64 %.sroa.015.0.insert.insert.i
}